target datalayout = "e-m:e-p270:32:32-p271:32:32-p272:64:64-i64:64-i128:128-f80:128-n8:16:32:64-S128"
target triple = "x86_64-pc-linux-gnu"

%struct.connectdata = type { %struct.Curl_llist_node, ptr, ptr, i64, ptr, i64, ptr, ptr, %struct.hostname, ptr, ptr, %struct.hostname, %struct.proxy_info, %struct.proxy_info, %struct.ip_quadruple, %struct.ip_quadruple, ptr, ptr, ptr, ptr, ptr, %struct.curltime, %struct.curltime, %struct.curltime, [2 x i32], [2 x ptr], [2 x ptr], [2 x ptr], %struct.anon, %struct.easy_pollset, %struct.ssl_primary_config, %struct.ssl_primary_config, %struct.ConnectBits, ptr, ptr, %struct.curltime, i32, i32, %struct.Curl_llist, i32, i32, %struct.ntlmdata, %struct.ntlmdata, %union.anon.1, ptr, ptr, i16, i32, i32, i32, i32, i16, i16, i8, i8, i8, i8, i8, i8, i8 }
%struct.Curl_llist_node = type { ptr, ptr, ptr, ptr }
%struct.hostname = type { ptr, ptr, ptr, ptr }
%struct.proxy_info = type { %struct.hostname, i32, i8, ptr, ptr }
%struct.ip_quadruple = type { [46 x i8], [46 x i8], i32, i32 }
%struct.anon = type { [2 x %struct.curltime], i32 }
%struct.easy_pollset = type { [5 x i32], i32, [5 x i8] }
%struct.ssl_primary_config = type { ptr, ptr, ptr, ptr, ptr, ptr, ptr, ptr, ptr, ptr, ptr, ptr, ptr, ptr, i8, i32, i8, i8 }
%struct.ConnectBits = type { i64 }
%struct.curltime = type { i64, i32 }
%struct.Curl_llist = type { ptr, ptr, ptr, i64 }
%struct.ntlmdata = type { i32, [8 x i8], i32, ptr }
%union.anon.1 = type { %struct.ftp_conn }
%struct.ftp_conn = type { %struct.pingpong, ptr, ptr, ptr, ptr, ptr, ptr, ptr, i8, i64, ptr, i64, i32, i32, i32, i32, i32, i16, i8, i8, i8, i8, i8 }
%struct.pingpong = type { i64, i8, ptr, i64, i64, %struct.curltime, i64, %struct.dynbuf, %struct.dynbuf, i64, i64, ptr, ptr }
%struct.dynbuf = type { ptr, i64, i64, i64 }
%struct.Curl_easy = type { i32, i64, i64, ptr, %struct.Curl_llist_node, %struct.Curl_llist_node, i32, i32, %struct.Curl_message, %struct.easy_pollset, %struct.Names, ptr, ptr, ptr, ptr, %struct.SingleRequest, %struct.UserDefined, ptr, ptr, ptr, %struct.Progress, %struct.UrlState, ptr, %struct.PureInfo, %struct.curl_tlssessioninfo }
%struct.Curl_message = type { %struct.Curl_llist_node, %struct.CURLMsg }
%struct.CURLMsg = type { i32, ptr, %union.anon }
%union.anon = type { ptr }
%struct.Names = type { ptr, i32 }
%struct.SingleRequest = type <{ i64, i64, i64, i64, %struct.curltime, i32, i32, i32, i32, i64, i32, i32, i8, i8, [2 x i8], i32, ptr, ptr, %struct.bufq, i64, i64, ptr, ptr, %union.anon.0, ptr, i8, i32, [3 x i8] }>
%struct.bufq = type { ptr, ptr, ptr, ptr, i64, i64, i64, i32 }
%union.anon.0 = type { ptr }
%struct.UserDefined = type <{ ptr, ptr, ptr, ptr, ptr, ptr, i64, i64, i64, ptr, ptr, i64, ptr, ptr, ptr, ptr, ptr, ptr, ptr, ptr, ptr, ptr, ptr, ptr, ptr, ptr, ptr, ptr, ptr, ptr, ptr, ptr, ptr, ptr, ptr, i64, i64, i64, i64, i64, i64, i64, i64, i64, ptr, ptr, %struct.curl_mimepart, ptr, ptr, ptr, i64, %struct.ssl_config_data, %struct.ssl_config_data, ptr, i16, i8, i8, %struct.ssl_general_config, i32, i32, i32, [4 x i8], ptr, ptr, i64, i32, i8, i8, i8, i8, ptr, ptr, ptr, i32, [4 x i8], [74 x ptr], [8 x ptr], i32, i32, i32, [4 x i8], ptr, i32, [4 x i8], ptr, ptr, ptr, ptr, ptr, i32, i32, i32, i32, i32, i32, i32, i32, i64, ptr, ptr, i64, ptr, i64, ptr, ptr, ptr, ptr, i32, i16, i16, i16, i8, i8, i8, i8, i8, i8, i8, i8, i64, [6 x i8] }>
%struct.curl_mimepart = type { ptr, ptr, i32, i32, ptr, ptr, ptr, ptr, ptr, ptr, ptr, ptr, ptr, ptr, ptr, i64, %struct.mime_state, ptr, %struct.mime_encoder_state, i64 }
%struct.mime_state = type { i32, ptr, i64 }
%struct.mime_encoder_state = type { i64, i64, i64, [256 x i8] }
%struct.ssl_config_data = type { %struct.ssl_primary_config, i64, ptr, ptr, ptr, ptr, ptr, ptr, ptr, i16 }
%struct.ssl_general_config = type { i32 }
%struct.Progress = type { i64, %struct.pgrs_dir, %struct.pgrs_dir, i64, i64, i32, i32, i64, i64, i64, i64, i64, i64, i64, i64, i64, %struct.curltime, %struct.curltime, %struct.curltime, %struct.curltime, %struct.curltime, [6 x i64], [6 x %struct.curltime], i32, i8 }
%struct.pgrs_dir = type { i64, i64, i64, %struct.pgrs_measure }
%struct.pgrs_measure = type { %struct.curltime, i64 }
%struct.UrlState = type { %struct.curltime, i64, i64, %struct.dynbuf, ptr, i64, ptr, i32, i32, i32, ptr, i32, i64, i32, ptr, %struct.digestdata, %struct.digestdata, %struct.auth, %struct.auth, %struct.Curl_async, ptr, i8, %struct.curltime, %struct.Curl_tree, %struct.Curl_llist, [15 x %struct.time_node], ptr, ptr, i64, i64, i64, i64, [32 x i8], i64, ptr, ptr, ptr, %struct.urlpieces, ptr, ptr, ptr, ptr, ptr, i64, %struct.dynbuf, %struct.Curl_llist, [2 x %struct.curl_header], ptr, i32, ptr, ptr, %struct.store_netrc, %struct.dynamically_allocated_data, i8, i8, i8, i8, i32 }
%struct.digestdata = type { ptr, ptr, ptr, ptr, ptr, ptr, i32, i8, i8 }
%struct.auth = type { i64, i64, i64, i8 }
%struct.Curl_async = type { ptr, ptr, ptr, ptr, i32, i32, i8 }
%struct.Curl_tree = type { ptr, ptr, ptr, ptr, %struct.curltime, ptr }
%struct.time_node = type { %struct.Curl_llist_node, %struct.curltime, i32 }
%struct.urlpieces = type { ptr, ptr, ptr, ptr, ptr, ptr, ptr, ptr }
%struct.curl_header = type { ptr, ptr, i64, i64, i32, ptr }
%struct.store_netrc = type { %struct.dynbuf, ptr, i8 }
%struct.dynamically_allocated_data = type { ptr, ptr, ptr, ptr, ptr, ptr, ptr, ptr, ptr, ptr, ptr, ptr, ptr, ptr }
%struct.PureInfo = type { i32, i32, i32, i64, i64, i64, i64, i64, i64, i64, ptr, ptr, i64, i32, %struct.ip_quadruple, i32, ptr, i32, %struct.curl_certinfo, i32, i8 }
%struct.curl_certinfo = type { i32, ptr }
%struct.curl_tlssessioninfo = type { i32, ptr }

@.str.118 = private unnamed_addr constant [24 x i8] c"The file does not exist\00", align 1
@.str.119 = private unnamed_addr constant [22 x i8] c"Content-Length: %ld\0D\0A\00", align 1

; Function Attrs: nounwind uwtable
define internal i32 @client_write_header(ptr noundef %0, ptr noundef %1, i64 noundef %2) #0 {
  %4 = alloca ptr, align 8
  %5 = alloca ptr, align 8
  %6 = alloca i64, align 8
  %7 = alloca i32, align 4
  %8 = alloca i8, align 1
  store ptr %0, ptr %4, align 8, !tbaa !3
  store ptr %1, ptr %5, align 8, !tbaa !17
  store i64 %2, ptr %6, align 8, !tbaa !124
  call void @llvm.lifetime.start.p0(i64 4, ptr %7) #9
  call void @llvm.lifetime.start.p0(i64 1, ptr %8) #9
  %9 = load ptr, ptr %4, align 8, !tbaa !3
  %10 = getelementptr inbounds nuw %struct.Curl_easy, ptr %9, i32 0, i32 16
  %11 = getelementptr inbounds nuw %struct.UserDefined, ptr %10, i32 0, i32 119
  %12 = load i64, ptr %11, align 2
  %13 = lshr i64 %12, 27
  %14 = and i64 %13, 1
  %15 = trunc i64 %14 to i32
  %16 = icmp ne i32 %15, 0
  %17 = zext i1 %16 to i8
  store i8 %17, ptr %8, align 1, !tbaa !116
  %18 = load ptr, ptr %4, align 8, !tbaa !3
  %19 = getelementptr inbounds nuw %struct.Curl_easy, ptr %18, i32 0, i32 16
  %20 = getelementptr inbounds nuw %struct.UserDefined, ptr %19, i32 0, i32 119
  %21 = load i64, ptr %20, align 2
  %22 = and i64 %21, -134217729
  %23 = or i64 %22, 134217728
  store i64 %23, ptr %20, align 2
  %24 = load ptr, ptr %4, align 8, !tbaa !3
  %25 = load ptr, ptr %5, align 8, !tbaa !17
  %26 = load i64, ptr %6, align 8, !tbaa !124
  %27 = call i32 @Curl_client_write(ptr noundef %24, i32 noundef 4, ptr noundef %25, i64 noundef %26)
  store i32 %27, ptr %7, align 4, !tbaa !10
  %28 = load i8, ptr %8, align 1, !tbaa !116, !range !125, !noundef !126
  %29 = trunc i8 %28 to i1
  %30 = zext i1 %29 to i32
  %31 = load ptr, ptr %4, align 8, !tbaa !3
  %32 = getelementptr inbounds nuw %struct.Curl_easy, ptr %31, i32 0, i32 16
  %33 = getelementptr inbounds nuw %struct.UserDefined, ptr %32, i32 0, i32 119
  %34 = zext i32 %30 to i64
  %35 = load i64, ptr %33, align 2
  %36 = and i64 %34, 1
  %37 = shl i64 %36, 27
  %38 = and i64 %35, -134217729
  %39 = or i64 %38, %37
  store i64 %39, ptr %33, align 2
  %40 = load i32, ptr %7, align 4, !tbaa !10
  call void @llvm.lifetime.end.p0(i64 1, ptr %8) #9
  call void @llvm.lifetime.end.p0(i64 4, ptr %7) #9
  ret i32 %40
}

; Function Attrs: nounwind uwtable
define internal i32 @ftp_state_size_resp(ptr noundef %0, i32 noundef %1, i8 noundef zeroext %2) #0 {
  %4 = alloca i32, align 4
  %5 = alloca ptr, align 8
  %6 = alloca i32, align 4
  %7 = alloca i8, align 1
  %8 = alloca i32, align 4
  %9 = alloca i64, align 8
  %10 = alloca ptr, align 8
  %11 = alloca i64, align 8
  %12 = alloca ptr, align 8
  %13 = alloca ptr, align 8
  %14 = alloca i32, align 4
  %15 = alloca [128 x i8], align 16
  %16 = alloca i32, align 4
  store ptr %0, ptr %5, align 8, !tbaa !3
  store i32 %1, ptr %6, align 4, !tbaa !10
  store i8 %2, ptr %7, align 1, !tbaa !29
  call void @llvm.lifetime.start.p0(i64 4, ptr %8) #9
  store i32 0, ptr %8, align 4, !tbaa !10
  call void @llvm.lifetime.start.p0(i64 8, ptr %9) #9
  store i64 -1, ptr %9, align 8, !tbaa !124
  call void @llvm.lifetime.start.p0(i64 8, ptr %10) #9
  %17 = load ptr, ptr %5, align 8, !tbaa !3
  %18 = getelementptr inbounds nuw %struct.Curl_easy, ptr %17, i32 0, i32 3
  %19 = load ptr, ptr %18, align 8, !tbaa !115
  %20 = getelementptr inbounds nuw %struct.connectdata, ptr %19, i32 0, i32 43
  %21 = getelementptr inbounds nuw %struct.ftp_conn, ptr %20, i32 0, i32 0
  %22 = getelementptr inbounds nuw %struct.pingpong, ptr %21, i32 0, i32 8
  %23 = call ptr @Curl_dyn_ptr(ptr noundef %22)
  store ptr %23, ptr %10, align 8, !tbaa !17
  call void @llvm.lifetime.start.p0(i64 8, ptr %11) #9
  %24 = load ptr, ptr %5, align 8, !tbaa !3
  %25 = getelementptr inbounds nuw %struct.Curl_easy, ptr %24, i32 0, i32 3
  %26 = load ptr, ptr %25, align 8, !tbaa !115
  %27 = getelementptr inbounds nuw %struct.connectdata, ptr %26, i32 0, i32 43
  %28 = getelementptr inbounds nuw %struct.ftp_conn, ptr %27, i32 0, i32 0
  %29 = getelementptr inbounds nuw %struct.pingpong, ptr %28, i32 0, i32 10
  %30 = load i64, ptr %29, align 8, !tbaa !29
  store i64 %30, ptr %11, align 8, !tbaa !124
  %31 = load i32, ptr %6, align 4, !tbaa !10
  %32 = icmp eq i32 %31, 213
  br i1 %32, label %33, label %79

33:                                               ; preds = %3
  call void @llvm.lifetime.start.p0(i64 8, ptr %12) #9
  %34 = load ptr, ptr %10, align 8, !tbaa !17
  %35 = getelementptr inbounds i8, ptr %34, i64 4
  store ptr %35, ptr %12, align 8, !tbaa !17
  call void @llvm.lifetime.start.p0(i64 8, ptr %13) #9
  %36 = load ptr, ptr %12, align 8, !tbaa !17
  %37 = load i64, ptr %11, align 8, !tbaa !124
  %38 = call ptr @memchr(ptr noundef %36, i32 noundef 13, i64 noundef %37) #10
  store ptr %38, ptr %13, align 8, !tbaa !17
  %39 = load ptr, ptr %13, align 8, !tbaa !17
  %40 = icmp ne ptr %39, null
  br i1 %40, label %41, label %74

41:                                               ; preds = %33
  %42 = load ptr, ptr %13, align 8, !tbaa !17
  %43 = getelementptr inbounds i8, ptr %42, i32 -1
  store ptr %43, ptr %13, align 8, !tbaa !17
  %44 = load ptr, ptr %13, align 8, !tbaa !17
  %45 = load i8, ptr %44, align 1, !tbaa !29
  %46 = sext i8 %45 to i32
  %47 = icmp eq i32 %46, 10
  br i1 %47, label %48, label %51

48:                                               ; preds = %41
  %49 = load ptr, ptr %13, align 8, !tbaa !17
  %50 = getelementptr inbounds i8, ptr %49, i32 -1
  store ptr %50, ptr %13, align 8, !tbaa !17
  br label %51

51:                                               ; preds = %48, %41
  br label %52

52:                                               ; preds = %70, %51
  %53 = load ptr, ptr %13, align 8, !tbaa !17
  %54 = getelementptr inbounds i8, ptr %53, i64 -1
  %55 = load i8, ptr %54, align 1, !tbaa !29
  %56 = sext i8 %55 to i32
  %57 = icmp sge i32 %56, 48
  br i1 %57, label %58, label %68

58:                                               ; preds = %52
  %59 = load ptr, ptr %13, align 8, !tbaa !17
  %60 = getelementptr inbounds i8, ptr %59, i64 -1
  %61 = load i8, ptr %60, align 1, !tbaa !29
  %62 = sext i8 %61 to i32
  %63 = icmp sle i32 %62, 57
  br i1 %63, label %64, label %68

64:                                               ; preds = %58
  %65 = load ptr, ptr %13, align 8, !tbaa !17
  %66 = load ptr, ptr %12, align 8, !tbaa !17
  %67 = icmp ugt ptr %65, %66
  br label %68

68:                                               ; preds = %64, %58, %52
  %69 = phi i1 [ false, %58 ], [ false, %52 ], [ %67, %64 ]
  br i1 %69, label %70, label %73

70:                                               ; preds = %68
  %71 = load ptr, ptr %13, align 8, !tbaa !17
  %72 = getelementptr inbounds i8, ptr %71, i32 -1
  store ptr %72, ptr %13, align 8, !tbaa !17
  br label %52, !llvm.loop !193

73:                                               ; preds = %68
  br label %76

74:                                               ; preds = %33
  %75 = load ptr, ptr %12, align 8, !tbaa !17
  store ptr %75, ptr %13, align 8, !tbaa !17
  br label %76

76:                                               ; preds = %74, %73
  %77 = load ptr, ptr %13, align 8, !tbaa !17
  %78 = call i32 @curlx_strtoofft(ptr noundef %77, ptr noundef null, i32 noundef 10, ptr noundef %9)
  call void @llvm.lifetime.end.p0(i64 8, ptr %13) #9
  call void @llvm.lifetime.end.p0(i64 8, ptr %12) #9
  br label %90

79:                                               ; preds = %3
  %80 = load i32, ptr %6, align 4, !tbaa !10
  %81 = icmp eq i32 %80, 550
  br i1 %81, label %82, label %89

82:                                               ; preds = %79
  %83 = load i8, ptr %7, align 1, !tbaa !29
  %84 = zext i8 %83 to i32
  %85 = icmp ne i32 %84, 25
  br i1 %85, label %86, label %88

86:                                               ; preds = %82
  %87 = load ptr, ptr %5, align 8, !tbaa !3
  call void (ptr, ptr, ...) @Curl_failf(ptr noundef %87, ptr noundef @.str.118)
  store i32 78, ptr %4, align 4
  store i32 1, ptr %14, align 4
  br label %147

88:                                               ; preds = %82
  br label %89

89:                                               ; preds = %88, %79
  br label %90

90:                                               ; preds = %89, %76
  %91 = load i8, ptr %7, align 1, !tbaa !29
  %92 = zext i8 %91 to i32
  %93 = icmp eq i32 %92, 23
  br i1 %93, label %94, label %122

94:                                               ; preds = %90
  %95 = load i64, ptr %9, align 8, !tbaa !124
  %96 = icmp ne i64 -1, %95
  br i1 %96, label %97, label %114

97:                                               ; preds = %94
  call void @llvm.lifetime.start.p0(i64 128, ptr %15) #9
  call void @llvm.lifetime.start.p0(i64 4, ptr %16) #9
  %98 = getelementptr inbounds [128 x i8], ptr %15, i64 0, i64 0
  %99 = load i64, ptr %9, align 8, !tbaa !124
  %100 = call i32 (ptr, i64, ptr, ...) @curl_msnprintf(ptr noundef %98, i64 noundef 128, ptr noundef @.str.119, i64 noundef %99)
  store i32 %100, ptr %16, align 4, !tbaa !10
  %101 = load ptr, ptr %5, align 8, !tbaa !3
  %102 = getelementptr inbounds [128 x i8], ptr %15, i64 0, i64 0
  %103 = load i32, ptr %16, align 4, !tbaa !10
  %104 = sext i32 %103 to i64
  %105 = call i32 @client_write_header(ptr noundef %101, ptr noundef %102, i64 noundef %104)
  store i32 %105, ptr %8, align 4, !tbaa !10
  %106 = load i32, ptr %8, align 4, !tbaa !10
  %107 = icmp ne i32 %106, 0
  br i1 %107, label %108, label %110

108:                                              ; preds = %97
  %109 = load i32, ptr %8, align 4, !tbaa !10
  store i32 %109, ptr %4, align 4
  store i32 1, ptr %14, align 4
  br label %111

110:                                              ; preds = %97
  store i32 0, ptr %14, align 4
  br label %111

111:                                              ; preds = %110, %108
  call void @llvm.lifetime.end.p0(i64 4, ptr %16) #9
  call void @llvm.lifetime.end.p0(i64 128, ptr %15) #9
  %112 = load i32, ptr %14, align 4
  switch i32 %112, label %147 [
    i32 0, label %113
  ]

113:                                              ; preds = %111
  br label %114

114:                                              ; preds = %113, %94
  %115 = load ptr, ptr %5, align 8, !tbaa !3
  %116 = load i64, ptr %9, align 8, !tbaa !124
  call void @Curl_pgrsSetDownloadSize(ptr noundef %115, i64 noundef %116)
  %117 = load ptr, ptr %5, align 8, !tbaa !3
  %118 = load ptr, ptr %5, align 8, !tbaa !3
  %119 = getelementptr inbounds nuw %struct.Curl_easy, ptr %118, i32 0, i32 3
  %120 = load ptr, ptr %119, align 8, !tbaa !115
  %121 = call i32 @ftp_state_rest(ptr noundef %117, ptr noundef %120)
  store i32 %121, ptr %8, align 4, !tbaa !10
  br label %145

122:                                              ; preds = %90
  %123 = load i8, ptr %7, align 1, !tbaa !29
  %124 = zext i8 %123 to i32
  %125 = icmp eq i32 %124, 24
  br i1 %125, label %126, label %132

126:                                              ; preds = %122
  %127 = load ptr, ptr %5, align 8, !tbaa !3
  %128 = load i64, ptr %9, align 8, !tbaa !124
  call void @Curl_pgrsSetDownloadSize(ptr noundef %127, i64 noundef %128)
  %129 = load ptr, ptr %5, align 8, !tbaa !3
  %130 = load i64, ptr %9, align 8, !tbaa !124
  %131 = call i32 @ftp_state_retr(ptr noundef %129, i64 noundef %130)
  store i32 %131, ptr %8, align 4, !tbaa !10
  br label %144

132:                                              ; preds = %122
  %133 = load i8, ptr %7, align 1, !tbaa !29
  %134 = zext i8 %133 to i32
  %135 = icmp eq i32 %134, 25
  br i1 %135, label %136, label %143

136:                                              ; preds = %132
  %137 = load i64, ptr %9, align 8, !tbaa !124
  %138 = load ptr, ptr %5, align 8, !tbaa !3
  %139 = getelementptr inbounds nuw %struct.Curl_easy, ptr %138, i32 0, i32 21
  %140 = getelementptr inbounds nuw %struct.UrlState, ptr %139, i32 0, i32 28
  store i64 %137, ptr %140, align 8, !tbaa !194
  %141 = load ptr, ptr %5, align 8, !tbaa !3
  %142 = call i32 @ftp_state_ul_setup(ptr noundef %141, i1 noundef zeroext true)
  store i32 %142, ptr %8, align 4, !tbaa !10
  br label %143

143:                                              ; preds = %136, %132
  br label %144

144:                                              ; preds = %143, %126
  br label %145

145:                                              ; preds = %144, %114
  %146 = load i32, ptr %8, align 4, !tbaa !10
  store i32 %146, ptr %4, align 4
  store i32 1, ptr %14, align 4
  br label %147

147:                                              ; preds = %145, %111, %86
  call void @llvm.lifetime.end.p0(i64 8, ptr %11) #9
  call void @llvm.lifetime.end.p0(i64 8, ptr %10) #9
  call void @llvm.lifetime.end.p0(i64 8, ptr %9) #9
  call void @llvm.lifetime.end.p0(i64 4, ptr %8) #9
  %148 = load i32, ptr %4, align 4
  ret i32 %148
}